; Function Attrs: nounwind uwtable
define hidden noundef ptr @phpdbg_add_watch_element(ptr nocapture noundef readonly %0, ptr noundef %1) local_unnamed_addr #0 {
  %3 = alloca %struct.uffdio_register, align 8
  %4 = alloca %struct.uffdio_writeprotect, align 8
  %5 = alloca %struct._zval_struct, align 8
  %6 = load ptr, ptr %0, align 8
  %7 = ptrtoint ptr %6 to i64
  %8 = tail call ptr @phpdbg_btree_find(ptr noundef nonnull getelementptr inbounds (%struct._zend_phpdbg_globals, ptr @phpdbg_globals, i64 0, i32 13), i64 noundef %7) #17
  %9 = icmp eq ptr %8, null
  br i1 %9, label %10, label %40

10:                                               ; preds = %2
  %11 = tail call noalias ptr @_emalloc_160() #17
  tail call void @llvm.memcpy.p0.p0.i64(ptr noundef nonnull align 8 dereferenceable(152) %11, ptr noundef nonnull align 8 dereferenceable(152) %0, i64 152, i1 false)
  %12 = load ptr, ptr %11, align 8
  %13 = ptrtoint ptr %12 to i64
  %14 = tail call i32 @phpdbg_btree_insert_or_update(ptr noundef nonnull getelementptr inbounds (%struct._zend_phpdbg_globals, ptr @phpdbg_globals, i64 0, i32 13), i64 noundef %13, ptr noundef nonnull %11, i32 noundef 1) #17
  %15 = getelementptr inbounds i8, ptr %11, i64 16
  %16 = load i32, ptr %15, align 8
  switch i32 %16, label %18 [
    i32 0, label %17
    i32 5, label %17
  ]

17:                                               ; preds = %10, %10
  tail call void @phpdbg_update_watch_ref(ptr noundef nonnull %11)
  br label %18

18:                                               ; preds = %10, %17
  %.val = load ptr, ptr %11, align 8
  %19 = getelementptr i8, ptr %11, i64 8
  %.val45 = load i64, ptr %19, align 8
  call void @llvm.lifetime.start.p0(i64 32, ptr nonnull %3)
  call void @llvm.lifetime.start.p0(i64 24, ptr nonnull %4)
  %20 = ptrtoint ptr %.val to i64
  %21 = load i64, ptr @phpdbg_pagesize, align 8
  %22 = sub i64 0, %21
  %23 = and i64 %22, %20
  %24 = add i64 %.val45, -1
  %25 = add i64 %24, %20
  %26 = and i64 %25, %22
  %27 = sub i64 %26, %23
  %28 = add i64 %27, %21
  %29 = load i32, ptr getelementptr inbounds (%struct._zend_phpdbg_globals, ptr @phpdbg_globals, i64 0, i32 11), align 8
  %.not.i.i = icmp eq i32 %29, 0
  br i1 %.not.i.i, label %37, label %30

30:                                               ; preds = %18
  store i64 %23, ptr %3, align 8
  %.sroa.4.0..sroa_idx.i.i = getelementptr inbounds i8, ptr %3, i64 8
  store i64 %28, ptr %.sroa.4.0..sroa_idx.i.i, align 8
  %31 = getelementptr inbounds i8, ptr %3, i64 16
  store i64 2, ptr %31, align 8
  %32 = getelementptr inbounds i8, ptr %3, i64 24
  store i64 0, ptr %32, align 8
  store i64 %23, ptr %4, align 8
  %.sroa.4.0..sroa_idx3.i.i = getelementptr inbounds i8, ptr %4, i64 8
  store i64 %28, ptr %.sroa.4.0..sroa_idx3.i.i, align 8
  %33 = getelementptr inbounds i8, ptr %4, i64 16
  store i64 1, ptr %33, align 8
  %34 = call i32 (i32, i64, ...) @ioctl(i32 noundef %29, i64 noundef 3223366144, ptr noundef nonnull %3) #17
  %35 = load i32, ptr getelementptr inbounds (%struct._zend_phpdbg_globals, ptr @phpdbg_globals, i64 0, i32 11), align 8
  %36 = call i32 (i32, i64, ...) @ioctl(i32 noundef %35, i64 noundef 3222841862, ptr noundef nonnull %4) #17
  br label %phpdbg_activate_watchpoint.exit

37:                                               ; preds = %18
  %38 = inttoptr i64 %23 to ptr
  %39 = tail call i32 @mprotect(ptr noundef %38, i64 noundef %28, i32 noundef 1) #17
  br label %phpdbg_activate_watchpoint.exit

phpdbg_activate_watchpoint.exit:                  ; preds = %30, %37
  call void @llvm.lifetime.end.p0(i64 32, ptr nonnull %3)
  call void @llvm.lifetime.end.p0(i64 24, ptr nonnull %4)
  call void @phpdbg_watch_backup_data(ptr noundef nonnull %11)
  br label %.thread

40:                                               ; preds = %2
  %41 = getelementptr inbounds i8, ptr %8, i64 8
  %42 = load ptr, ptr %41, align 8
  %43 = getelementptr inbounds i8, ptr %42, i64 32
  %44 = getelementptr inbounds i8, ptr %1, i64 112
  %45 = load ptr, ptr %44, align 8
  %46 = tail call ptr @zend_hash_find(ptr noundef nonnull %43, ptr noundef %45) #17
  %.not = icmp eq ptr %46, null
  br i1 %.not, label %.thread, label %47

47:                                               ; preds = %40
  %48 = load ptr, ptr %46, align 8, !nonnull !4, !noundef !4
  tail call void @phpdbg_free_watch_element(ptr noundef nonnull %1)
  br label %63

.thread:                                          ; preds = %40, %phpdbg_activate_watchpoint.exit
  %.037 = phi ptr [ %11, %phpdbg_activate_watchpoint.exit ], [ %42, %40 ]
  %49 = getelementptr inbounds i8, ptr %1, i64 8
  store ptr %.037, ptr %49, align 8
  %50 = getelementptr inbounds i8, ptr %.037, i64 32
  %51 = getelementptr inbounds i8, ptr %1, i64 112
  %52 = load ptr, ptr %51, align 8
  store ptr %1, ptr %5, align 8
  %53 = getelementptr inbounds i8, ptr %5, i64 8
  store i32 13, ptr %53, align 8
  %54 = call ptr @zend_hash_add(ptr noundef nonnull %50, ptr noundef %52, ptr noundef nonnull %5) #17
  %.not43 = icmp eq ptr %54, null
  br i1 %.not43, label %58, label %55

55:                                               ; preds = %.thread
  %56 = load ptr, ptr %54, align 8
  %57 = icmp ne ptr %56, null
  call void @llvm.assume(i1 %57)
  br label %58

58:                                               ; preds = %.thread, %55
  %59 = getelementptr inbounds i8, ptr %1, i64 16
  %60 = load i8, ptr %59, align 8
  %61 = and i8 %60, 2
  %.not44 = icmp eq i8 %61, 0
  br i1 %.not44, label %63, label %62

62:                                               ; preds = %58
  call void @phpdbg_recurse_watch_element(ptr noundef nonnull %1)
  br label %63

63:                                               ; preds = %58, %62, %47
  %.036 = phi ptr [ %48, %47 ], [ %1, %62 ], [ %1, %58 ]
  ret ptr %.036
}